; Function Attrs: nounwind sspstrong uwtable
define dso_local i64 @qnum_get_int(ptr noundef readonly captures(none) %qn) local_unnamed_addr #0 {
entry:
  %kind.i = getelementptr inbounds nuw i8, ptr %qn, i64 16
  %0 = load i32, ptr %kind.i, align 8
  switch i32 %0, label %sw.epilog.i [
    i32 0, label %sw.bb.i
    i32 1, label %sw.bb1.i
    i32 2, label %if.else
  ]

sw.bb.i:                                          ; preds = %entry
  %u.i = getelementptr inbounds nuw i8, ptr %qn, i64 24
  %1 = load i64, ptr %u.i, align 8
  br label %if.end

sw.bb1.i:                                         ; preds = %entry
  %u2.i = getelementptr inbounds nuw i8, ptr %qn, i64 24
  %2 = load i64, ptr %u2.i, align 8
  %cmp.i = icmp slt i64 %2, 0
  br i1 %cmp.i, label %if.else, label %if.end

sw.epilog.i:                                      ; preds = %entry
  tail call void @__assert_fail(ptr noundef nonnull @.str, ptr noundef nonnull @.str.1, i32 noundef 88, ptr noundef nonnull @__PRETTY_FUNCTION__.qnum_get_try_int) #6
  unreachable

if.else:                                          ; preds = %sw.bb1.i, %entry
  tail call void @__assert_fail(ptr noundef nonnull @.str.2, ptr noundef nonnull @.str.1, i32 noundef 101, ptr noundef nonnull @__PRETTY_FUNCTION__.qnum_get_int) #6
  unreachable

if.end:                                           ; preds = %sw.bb1.i, %sw.bb.i
  %val.0.ph = phi i64 [ %1, %sw.bb.i ], [ %2, %sw.bb1.i ]
  ret i64 %val.0.ph
}